; Function Attrs: mustprogress uwtable
define dso_local void @_ZN20cmSourceFileLocationC2ERKS_(ptr noundef nonnull align 8 dereferenceable(80) initializes((0, 10)) %0, ptr noundef nonnull align 8 dereferenceable(80) %1) unnamed_addr #4 align 2 personality ptr @__gxx_personality_v0 {
  %3 = load ptr, ptr %1, align 8
  store ptr %3, ptr %0, align 8
  %4 = getelementptr inbounds nuw i8, ptr %0, i64 8
  store i8 1, ptr %4, align 8
  %5 = getelementptr inbounds nuw i8, ptr %0, i64 9
  store i8 1, ptr %5, align 1
  %6 = getelementptr inbounds nuw i8, ptr %0, i64 16
  tail call void @_ZNSt7__cxx1112basic_stringIcSt11char_traitsIcESaIcEEC1Ev(ptr noundef nonnull align 8 dereferenceable(32) %6) #12
  %7 = getelementptr inbounds nuw i8, ptr %0, i64 48
  tail call void @_ZNSt7__cxx1112basic_stringIcSt11char_traitsIcESaIcEEC1Ev(ptr noundef nonnull align 8 dereferenceable(32) %7) #12
  %8 = getelementptr inbounds nuw i8, ptr %1, i64 8
  %9 = load i8, ptr %8, align 8
  %10 = and i8 %9, 1
  store i8 %10, ptr %4, align 8
  %11 = getelementptr inbounds nuw i8, ptr %1, i64 9
  %12 = load i8, ptr %11, align 1
  %13 = and i8 %12, 1
  store i8 %13, ptr %5, align 1
  %14 = getelementptr inbounds nuw i8, ptr %1, i64 16
  %15 = invoke noundef nonnull align 8 dereferenceable(32) ptr @_ZNSt7__cxx1112basic_stringIcSt11char_traitsIcESaIcEEaSERKS4_(ptr noundef nonnull align 8 dereferenceable(32) %6, ptr noundef nonnull align 8 dereferenceable(32) %14)
          to label %16 unwind label %20

16:                                               ; preds = %2
  %17 = getelementptr inbounds nuw i8, ptr %1, i64 48
  %18 = invoke noundef nonnull align 8 dereferenceable(32) ptr @_ZNSt7__cxx1112basic_stringIcSt11char_traitsIcESaIcEEaSERKS4_(ptr noundef nonnull align 8 dereferenceable(32) %7, ptr noundef nonnull align 8 dereferenceable(32) %17)
          to label %19 unwind label %20

19:                                               ; preds = %16
  ret void

20:                                               ; preds = %16, %2
  %21 = landingpad { ptr, i32 }
          cleanup
  tail call void @_ZNSt7__cxx1112basic_stringIcSt11char_traitsIcESaIcEED1Ev(ptr noundef nonnull align 8 dereferenceable(32) %7) #12
  tail call void @_ZNSt7__cxx1112basic_stringIcSt11char_traitsIcESaIcEED1Ev(ptr noundef nonnull align 8 dereferenceable(32) %6) #12
  resume { ptr, i32 } %21
}